target datalayout = "e-m:e-p270:32:32-p271:32:32-p272:64:64-i64:64-i128:128-f80:128-n8:16:32:64-S128"
target triple = "x86_64-pc-linux-gnu"

%struct.AVFilterContext = type { ptr, ptr, ptr, ptr, ptr, i32, ptr, ptr, i32, ptr, ptr, i32, i32, ptr, ptr, ptr, ptr, i32, ptr, i32, i32 }
%struct.AudioSDRContext = type { i32, i64, double, ptr, [2 x ptr], ptr }
%struct.ChanStats = type { double, double, double }
%struct.AVChannelLayout = type { i32, i32, %union.anon.1, ptr }
%union.anon.1 = type { i64 }
%struct.AVRational = type { i32, i32 }
%struct.AVFrame = type { [8 x ptr], [8 x i32], ptr, i32, i32, i32, i32, i32, %struct.AVRational, i64, i64, %struct.AVRational, i32, ptr, i32, i32, [8 x ptr], ptr, i32, ptr, i32, i32, i32, i32, i32, i32, i32, i64, ptr, i32, ptr, ptr, i64, i64, i64, i64, ptr, %struct.AVChannelLayout, i64 }

; Function Attrs: nounwind uwtable
define internal i32 @psnr_fltp(ptr noundef %0, ptr noundef %1, i32 noundef %2, i32 noundef %3) #1 {
  %5 = alloca ptr, align 8
  %6 = alloca ptr, align 8
  %7 = alloca i32, align 4
  %8 = alloca i32, align 4
  %9 = alloca ptr, align 8
  %10 = alloca ptr, align 8
  %11 = alloca ptr, align 8
  %12 = alloca i32, align 4
  %13 = alloca i32, align 4
  %14 = alloca i32, align 4
  %15 = alloca i32, align 4
  %16 = alloca i32, align 4
  %17 = alloca i32, align 4
  %18 = alloca ptr, align 8
  %19 = alloca ptr, align 8
  %20 = alloca ptr, align 8
  %21 = alloca double, align 8
  %22 = alloca i32, align 4
  store ptr %0, ptr %5, align 8, !tbaa !4
  store ptr %1, ptr %6, align 8, !tbaa !69
  store i32 %2, ptr %7, align 4, !tbaa !27
  store i32 %3, ptr %8, align 4, !tbaa !27
  call void @llvm.lifetime.start.p0(i64 8, ptr %9) #7
  %23 = load ptr, ptr %5, align 8, !tbaa !4
  %24 = getelementptr inbounds nuw %struct.AVFilterContext, ptr %23, i32 0, i32 9
  %25 = load ptr, ptr %24, align 8, !tbaa !9
  store ptr %25, ptr %9, align 8, !tbaa !22
  call void @llvm.lifetime.start.p0(i64 8, ptr %10) #7
  %26 = load ptr, ptr %9, align 8, !tbaa !22
  %27 = getelementptr inbounds nuw %struct.AudioSDRContext, ptr %26, i32 0, i32 4
  %28 = getelementptr inbounds [2 x ptr], ptr %27, i64 0, i64 0
  %29 = load ptr, ptr %28, align 8, !tbaa !62
  store ptr %29, ptr %10, align 8, !tbaa !62
  call void @llvm.lifetime.start.p0(i64 8, ptr %11) #7
  %30 = load ptr, ptr %9, align 8, !tbaa !22
  %31 = getelementptr inbounds nuw %struct.AudioSDRContext, ptr %30, i32 0, i32 4
  %32 = getelementptr inbounds [2 x ptr], ptr %31, i64 0, i64 1
  %33 = load ptr, ptr %32, align 8, !tbaa !62
  store ptr %33, ptr %11, align 8, !tbaa !62
  call void @llvm.lifetime.start.p0(i64 4, ptr %12) #7
  %34 = load ptr, ptr %10, align 8, !tbaa !62
  %35 = getelementptr inbounds nuw %struct.AVFrame, ptr %34, i32 0, i32 37
  %36 = getelementptr inbounds nuw %struct.AVChannelLayout, ptr %35, i32 0, i32 1
  %37 = load i32, ptr %36, align 4, !tbaa !70
  store i32 %37, ptr %12, align 4, !tbaa !27
  call void @llvm.lifetime.start.p0(i64 4, ptr %13) #7
  %38 = load i32, ptr %12, align 4, !tbaa !27
  %39 = load i32, ptr %7, align 4, !tbaa !27
  %40 = mul nsw i32 %38, %39
  %41 = load i32, ptr %8, align 4, !tbaa !27
  %42 = sdiv i32 %40, %41
  store i32 %42, ptr %13, align 4, !tbaa !27
  call void @llvm.lifetime.start.p0(i64 4, ptr %14) #7
  %43 = load i32, ptr %12, align 4, !tbaa !27
  %44 = load i32, ptr %7, align 4, !tbaa !27
  %45 = add nsw i32 %44, 1
  %46 = mul nsw i32 %43, %45
  %47 = load i32, ptr %8, align 4, !tbaa !27
  %48 = sdiv i32 %46, %47
  store i32 %48, ptr %14, align 4, !tbaa !27
  call void @llvm.lifetime.start.p0(i64 4, ptr %15) #7
  %49 = load ptr, ptr %10, align 8, !tbaa !62
  %50 = getelementptr inbounds nuw %struct.AVFrame, ptr %49, i32 0, i32 5
  %51 = load i32, ptr %50, align 8, !tbaa !75
  store i32 %51, ptr %15, align 4, !tbaa !27
  call void @llvm.lifetime.start.p0(i64 4, ptr %16) #7
  %52 = load i32, ptr %13, align 4, !tbaa !27
  store i32 %52, ptr %16, align 4, !tbaa !27
  br label %53

53:                                               ; preds = %120, %4
  %54 = load i32, ptr %16, align 4, !tbaa !27
  %55 = load i32, ptr %14, align 4, !tbaa !27
  %56 = icmp slt i32 %54, %55
  br i1 %56, label %58, label %57

57:                                               ; preds = %53
  store i32 2, ptr %17, align 4
  call void @llvm.lifetime.end.p0(i64 4, ptr %16) #7
  br label %123

58:                                               ; preds = %53
  call void @llvm.lifetime.start.p0(i64 8, ptr %18) #7
  %59 = load ptr, ptr %9, align 8, !tbaa !22
  %60 = getelementptr inbounds nuw %struct.AudioSDRContext, ptr %59, i32 0, i32 3
  %61 = load ptr, ptr %60, align 8, !tbaa !33
  %62 = load i32, ptr %16, align 4, !tbaa !27
  %63 = sext i32 %62 to i64
  %64 = getelementptr inbounds %struct.ChanStats, ptr %61, i64 %63
  store ptr %64, ptr %18, align 8, !tbaa !76
  call void @llvm.lifetime.start.p0(i64 8, ptr %19) #7
  %65 = load ptr, ptr %10, align 8, !tbaa !62
  %66 = getelementptr inbounds nuw %struct.AVFrame, ptr %65, i32 0, i32 2
  %67 = load ptr, ptr %66, align 8, !tbaa !77
  %68 = load i32, ptr %16, align 4, !tbaa !27
  %69 = sext i32 %68 to i64
  %70 = getelementptr inbounds ptr, ptr %67, i64 %69
  %71 = load ptr, ptr %70, align 8, !tbaa !78
  store ptr %71, ptr %19, align 8, !tbaa !79
  call void @llvm.lifetime.start.p0(i64 8, ptr %20) #7
  %72 = load ptr, ptr %11, align 8, !tbaa !62
  %73 = getelementptr inbounds nuw %struct.AVFrame, ptr %72, i32 0, i32 2
  %74 = load ptr, ptr %73, align 8, !tbaa !77
  %75 = load i32, ptr %16, align 4, !tbaa !27
  %76 = sext i32 %75 to i64
  %77 = getelementptr inbounds ptr, ptr %74, i64 %76
  %78 = load ptr, ptr %77, align 8, !tbaa !78
  store ptr %78, ptr %20, align 8, !tbaa !79
  call void @llvm.lifetime.start.p0(i64 8, ptr %21) #7
  store double 0.000000e+00, ptr %21, align 8, !tbaa !40
  call void @llvm.lifetime.start.p0(i64 4, ptr %22) #7
  store i32 0, ptr %22, align 4, !tbaa !27
  br label %79

79:                                               ; preds = %111, %58
  %80 = load i32, ptr %22, align 4, !tbaa !27
  %81 = load i32, ptr %15, align 4, !tbaa !27
  %82 = icmp slt i32 %80, %81
  br i1 %82, label %84, label %83

83:                                               ; preds = %79
  store i32 5, ptr %17, align 4
  call void @llvm.lifetime.end.p0(i64 4, ptr %22) #7
  br label %114

84:                                               ; preds = %79
  %85 = load ptr, ptr %19, align 8, !tbaa !79
  %86 = load i32, ptr %22, align 4, !tbaa !27
  %87 = sext i32 %86 to i64
  %88 = getelementptr inbounds float, ptr %85, i64 %87
  %89 = load float, ptr %88, align 4, !tbaa !81
  %90 = load ptr, ptr %20, align 8, !tbaa !79
  %91 = load i32, ptr %22, align 4, !tbaa !27
  %92 = sext i32 %91 to i64
  %93 = getelementptr inbounds float, ptr %90, i64 %92
  %94 = load float, ptr %93, align 4, !tbaa !81
  %95 = fsub nsz float %89, %94
  %96 = load ptr, ptr %19, align 8, !tbaa !79
  %97 = load i32, ptr %22, align 4, !tbaa !27
  %98 = sext i32 %97 to i64
  %99 = getelementptr inbounds float, ptr %96, i64 %98
  %100 = load float, ptr %99, align 4, !tbaa !81
  %101 = load ptr, ptr %20, align 8, !tbaa !79
  %102 = load i32, ptr %22, align 4, !tbaa !27
  %103 = sext i32 %102 to i64
  %104 = getelementptr inbounds float, ptr %101, i64 %103
  %105 = load float, ptr %104, align 4, !tbaa !81
  %106 = fsub nsz float %100, %105
  %107 = fmul nsz float %95, %106
  %108 = fpext nsz float %107 to double
  %109 = load double, ptr %21, align 8, !tbaa !40
  %110 = fadd nsz double %109, %108
  store double %110, ptr %21, align 8, !tbaa !40
  br label %111

111:                                              ; preds = %84
  %112 = load i32, ptr %22, align 4, !tbaa !27
  %113 = add nsw i32 %112, 1
  store i32 %113, ptr %22, align 4, !tbaa !27
  br label %79, !llvm.loop !92

114:                                              ; preds = %83
  %115 = load double, ptr %21, align 8, !tbaa !40
  %116 = load ptr, ptr %18, align 8, !tbaa !76
  %117 = getelementptr inbounds nuw %struct.ChanStats, ptr %116, i32 0, i32 2
  %118 = load double, ptr %117, align 8, !tbaa !36
  %119 = fadd nsz double %118, %115
  store double %119, ptr %117, align 8, !tbaa !36
  call void @llvm.lifetime.end.p0(i64 8, ptr %21) #7
  call void @llvm.lifetime.end.p0(i64 8, ptr %20) #7
  call void @llvm.lifetime.end.p0(i64 8, ptr %19) #7
  call void @llvm.lifetime.end.p0(i64 8, ptr %18) #7
  br label %120

120:                                              ; preds = %114
  %121 = load i32, ptr %16, align 4, !tbaa !27
  %122 = add nsw i32 %121, 1
  store i32 %122, ptr %16, align 4, !tbaa !27
  br label %53, !llvm.loop !93

123:                                              ; preds = %57
  store i32 1, ptr %17, align 4
  call void @llvm.lifetime.end.p0(i64 4, ptr %15) #7
  call void @llvm.lifetime.end.p0(i64 4, ptr %14) #7
  call void @llvm.lifetime.end.p0(i64 4, ptr %13) #7
  call void @llvm.lifetime.end.p0(i64 4, ptr %12) #7
  call void @llvm.lifetime.end.p0(i64 8, ptr %11) #7
  call void @llvm.lifetime.end.p0(i64 8, ptr %10) #7
  call void @llvm.lifetime.end.p0(i64 8, ptr %9) #7
  ret i32 0
}